; Function Attrs: nounwind uwtable
define noalias noundef ptr @Gia_ManSimulateAll(ptr noundef captures(none) %0, ptr noundef readonly captures(none) %1, ptr noundef readonly captures(none) %2, i32 noundef %3, i32 noundef %4) local_unnamed_addr #0 {
  %6 = tail call noalias dereferenceable_or_null(16) ptr @malloc(i64 noundef 16) #23
  %7 = getelementptr inbounds nuw i8, ptr %6, i64 4
  store i32 0, ptr %7, align 4, !tbaa !51
  store i32 100, ptr %6, align 8, !tbaa !52
  %8 = tail call noalias dereferenceable_or_null(100) ptr @malloc(i64 noundef 100) #23
  %9 = getelementptr inbounds nuw i8, ptr %6, i64 8
  store ptr %8, ptr %9, align 8, !tbaa !5
  %10 = getelementptr i8, ptr %1, i64 4
  %.val33 = load i32, ptr %10, align 4, !tbaa !50
  %11 = sdiv i32 %.val33, 24576
  %12 = icmp sgt i32 %.val33, 24575
  br i1 %12, label %.lr.ph, label %._crit_edge

.lr.ph:                                           ; preds = %5
  %13 = add nsw i32 %11, -1
  %14 = getelementptr i8, ptr %1, i64 8
  %.not = icmp eq i32 %4, 0
  %15 = zext i32 %13 to i64
  %wide.trip.count = zext nneg i32 %11 to i64
  br label %16

16:                                               ; preds = %.lr.ph, %36
  %indvars.iv = phi i64 [ 0, %.lr.ph ], [ %indvars.iv.next, %36 ]
  %17 = icmp eq i64 %indvars.iv, %15
  %indvars.iv.tr = trunc i64 %indvars.iv to i32
  %18 = shl i32 %indvars.iv.tr, 6
  %19 = sub i32 %3, %18
  %20 = select i1 %17, i32 %19, i32 64
  %21 = tail call noalias dereferenceable_or_null(16) ptr @malloc(i64 noundef 16) #23
  store i32 24576, ptr %21, align 8, !tbaa !49
  %calloc = tail call dereferenceable_or_null(196608) ptr @calloc(i64 1, i64 196608)
  %22 = getelementptr inbounds nuw i8, ptr %21, i64 4
  %23 = getelementptr inbounds nuw i8, ptr %21, i64 8
  store ptr %calloc, ptr %23, align 8, !tbaa !13
  store i32 24576, ptr %22, align 4, !tbaa !50
  %24 = tail call noalias dereferenceable_or_null(16) ptr @malloc(i64 noundef 16) #23
  store i32 24576, ptr %24, align 8, !tbaa !49
  %calloc39 = tail call dereferenceable_or_null(196608) ptr @calloc(i64 1, i64 196608)
  %25 = getelementptr inbounds nuw i8, ptr %24, i64 4
  %26 = getelementptr inbounds nuw i8, ptr %24, i64 8
  store ptr %calloc39, ptr %26, align 8, !tbaa !13
  store i32 24576, ptr %25, align 4, !tbaa !50
  %.val = load ptr, ptr %14, align 8, !tbaa !13
  %.idx = mul nuw nsw i64 %indvars.iv, 196608
  %27 = getelementptr inbounds nuw i8, ptr %.val, i64 %.idx
  tail call void @llvm.memcpy.p0.p0.i64(ptr noundef nonnull align 8 dereferenceable(196608) %calloc, ptr noundef nonnull align 8 dereferenceable(196608) %27, i64 196608, i1 false)
  tail call void @Extra_BitMatrixTransposeP(ptr noundef nonnull %21, i32 noundef 384, ptr noundef nonnull %24, i32 noundef 1) #21
  %28 = load ptr, ptr %23, align 8, !tbaa !13
  %.not.i = icmp eq ptr %28, null
  br i1 %.not.i, label %Vec_WrdFree.exit, label %29

29:                                               ; preds = %16
  tail call void @free(ptr noundef nonnull %28) #21
  br label %Vec_WrdFree.exit

Vec_WrdFree.exit:                                 ; preds = %16, %29
  tail call void @free(ptr noundef nonnull %21) #21
  %30 = trunc nuw nsw i64 %indvars.iv to i32
  %31 = tail call i32 @Gia_ManSimulateBatch(ptr noundef %0, ptr noundef nonnull %24, ptr noundef nonnull %6, ptr noundef %2, i32 noundef %30, i32 noundef %20)
  %32 = load ptr, ptr %26, align 8, !tbaa !13
  %.not.i35 = icmp eq ptr %32, null
  br i1 %.not.i35, label %Vec_WrdFree.exit36, label %33

33:                                               ; preds = %Vec_WrdFree.exit
  tail call void @free(ptr noundef nonnull %32) #21
  br label %Vec_WrdFree.exit36

Vec_WrdFree.exit36:                               ; preds = %Vec_WrdFree.exit, %33
  tail call void @free(ptr noundef nonnull %24) #21
  br i1 %.not, label %36, label %34

34:                                               ; preds = %Vec_WrdFree.exit36
  %35 = tail call i32 (ptr, ...) @printf(ptr noundef nonnull dereferenceable(1) @.str.51, i32 noundef %30, i32 noundef %11, i32 noundef %31, i32 noundef %20)
  br label %36

36:                                               ; preds = %34, %Vec_WrdFree.exit36
  %indvars.iv.next = add nuw nsw i64 %indvars.iv, 1
  %exitcond.not = icmp eq i64 %indvars.iv.next, %wide.trip.count
  br i1 %exitcond.not, label %._crit_edge, label %16, !llvm.loop !101

._crit_edge:                                      ; preds = %36, %5
  ret ptr %6
}